; Function Attrs: mustprogress uwtable
define nonnull ptr @lean_compacted_region_free(i64 noundef %0, ptr noundef readnone captures(none) %1) local_unnamed_addr #0 {
  %3 = icmp eq i64 %0, 0
  br i1 %3, label %6, label %4

4:                                                ; preds = %2
  %5 = inttoptr i64 %0 to ptr
  tail call void @_ZN4lean16compacted_regionD1Ev(ptr noundef nonnull align 8 dereferenceable(72) %5) #22
  tail call void @_ZdlPvm(ptr noundef %5, i64 noundef 72) #23
  br label %6

6:                                                ; preds = %4, %2
  tail call void @lean_inc_heartbeat()
  %7 = tail call noalias ptr @mi_malloc_small(i64 noundef 24) #22
  %8 = icmp eq ptr %7, null
  br i1 %8, label %9, label %_ZL20lean_io_result_mk_okP11lean_object.exit

9:                                                ; preds = %6
  tail call void @lean_internal_panic_out_of_memory() #25
  unreachable

_ZL20lean_io_result_mk_okP11lean_object.exit:     ; preds = %6
  %10 = getelementptr inbounds nuw i8, ptr %7, i64 4
  store i32 1, ptr %7, align 4, !tbaa !68
  store i32 131096, ptr %10, align 4
  %11 = getelementptr inbounds nuw i8, ptr %7, i64 8
  store ptr inttoptr (i64 1 to ptr), ptr %11, align 8, !tbaa !63
  %12 = getelementptr inbounds nuw i8, ptr %7, i64 16
  store ptr inttoptr (i64 1 to ptr), ptr %12, align 8, !tbaa !63
  ret ptr %7
}